; Function Attrs: mustprogress nounwind uwtable
define dso_local void @_ZNK5clang4ento14ObjCIvarRegion17printPrettyAsExprERN4llvm11raw_ostreamE(ptr noundef nonnull align 8 dereferenceable(64) %0, ptr noundef nonnull align 8 dereferenceable(48) %1) unnamed_addr #3 align 2 {
  %3 = load ptr, ptr %0, align 8
  %4 = getelementptr inbounds i8, ptr %3, i64 112
  %5 = load ptr, ptr %4, align 8
  %6 = tail call noundef nonnull ptr %5(ptr noundef nonnull align 8 dereferenceable(64) %0) #20
  %7 = getelementptr inbounds nuw i8, ptr %6, i64 40
  %8 = load i64, ptr %7, align 8
  %9 = and i64 %8, 7
  %10 = icmp ne i64 %9, 0
  %11 = and i64 %8, -8
  %.not2.i = icmp eq i64 %11, 0
  %.not.i = or i1 %10, %.not2.i
  br i1 %.not.i, label %_ZN4llvm11raw_ostreamlsENS_9StringRefE.exit, label %_ZNK5clang9NamedDecl7getNameEv.exit

_ZNK5clang9NamedDecl7getNameEv.exit:              ; preds = %2
  %12 = inttoptr i64 %11 to ptr
  %13 = getelementptr inbounds nuw i8, ptr %12, i64 16
  %14 = load ptr, ptr %13, align 8
  %15 = getelementptr inbounds i8, ptr %14, i64 16
  %16 = load i64, ptr %14, align 8
  %17 = and i64 %16, 4294967295
  %18 = getelementptr inbounds nuw i8, ptr %1, i64 24
  %19 = load ptr, ptr %18, align 8
  %20 = getelementptr inbounds nuw i8, ptr %1, i64 32
  %21 = load ptr, ptr %20, align 8
  %22 = ptrtoint ptr %19 to i64
  %23 = ptrtoint ptr %21 to i64
  %24 = sub i64 %22, %23
  %25 = icmp ugt i64 %17, %24
  br i1 %25, label %26, label %28

26:                                               ; preds = %_ZNK5clang9NamedDecl7getNameEv.exit
  %27 = tail call noundef nonnull align 8 dereferenceable(48) ptr @_ZN4llvm11raw_ostream5writeEPKcm(ptr noundef nonnull align 8 dereferenceable(48) %1, ptr noundef nonnull %15, i64 noundef %17) #20
  br label %_ZN4llvm11raw_ostreamlsENS_9StringRefE.exit

28:                                               ; preds = %_ZNK5clang9NamedDecl7getNameEv.exit
  %.not.i2 = icmp eq i64 %17, 0
  br i1 %.not.i2, label %_ZN4llvm11raw_ostreamlsENS_9StringRefE.exit, label %29

29:                                               ; preds = %28
  tail call void @llvm.memcpy.p0.p0.i64(ptr align 1 %21, ptr nonnull align 1 %15, i64 %17, i1 false)
  %30 = load ptr, ptr %20, align 8
  %31 = getelementptr inbounds i8, ptr %30, i64 %17
  store ptr %31, ptr %20, align 8
  br label %_ZN4llvm11raw_ostreamlsENS_9StringRefE.exit

_ZN4llvm11raw_ostreamlsENS_9StringRefE.exit:      ; preds = %2, %26, %28, %29
  ret void
}